(iload
Preproc
p1
(dp2
S'std'
p3
cnumpy.core.multiarray
scalar
p4
(cnumpy
dtype
p5
(S'f4'
I0
I1
tRp6
(I3
S'<'
NNNI-1
I-1
I0
tbS'\x94\x80lC'
tRp7
sS'class_to_int'
p8
(dp9
VA
I0
sV~
I3
sVO
I2
sVN
I1
ssS'classes'
p10
(lp11
VA
aVN
aVO
aV~
asS'int_to_class'
p12
(dp13
I0
VA
sI1
VN
sI2
VO
sI3
V~
ssS'mean'
p14
g4
(g6
S'3\x12\xf0@'
tRp15
sb.